target datalayout = "e-m:e-p270:32:32-p271:32:32-p272:64:64-i64:64-i128:128-f80:128-n8:16:32:64-S128"
target triple = "x86_64-pc-linux-gnu"

%struct.ARKodeMemRec = type { ptr, double, ptr, i32, i32, double, double, ptr, i32, double, ptr, i32, i32, ptr, ptr, i32, ptr, ptr, i32, ptr, ptr, ptr, ptr, ptr, ptr, ptr, ptr, ptr, ptr, ptr, ptr, ptr, ptr, ptr, i32, ptr, ptr, i32, ptr, i32, ptr, ptr, ptr, ptr, ptr, ptr, ptr, ptr, ptr, ptr, ptr, ptr, ptr, ptr, ptr, ptr, ptr, ptr, ptr, ptr, ptr, ptr, ptr, ptr, ptr, ptr, i32, ptr, ptr, ptr, ptr, ptr, ptr, ptr, i32, ptr, ptr, ptr, i32, ptr, ptr, ptr, ptr, ptr, ptr, ptr, i32, i32, i32, i32, double, double, double, double, double, double, double, double, double, double, i32, ptr, i64, i32, i32, i32, i32, i64, i64, i32, i64, i64, i64, i64, i64, i64, i64, double, double, double, double, double, i32, double, double, i32, i32, i32, i32, i32, i32, i32, i32, ptr, i32, ptr, ptr, ptr, ptr, i32, i32, i32 }
%struct.ARKodeARKStepMemRec = type { ptr, ptr, i32, i32, i32, i32, i32, i32, ptr, ptr, ptr, ptr, ptr, ptr, i32, i32, i32, i32, ptr, ptr, ptr, ptr, i32, ptr, double, double, double, double, i32, double, double, double, double, double, double, i32, i64, i32, i32, i32, ptr, ptr, ptr, ptr, ptr, ptr, i32, ptr, ptr, ptr, ptr, ptr, ptr, i32, i32, i64, i64, i64, i64, i64, ptr, ptr, i32, i32, i32, double, double, ptr, i32, ptr, ptr }

@.str = private unnamed_addr constant [123 x i8] c"generated/home/dtcxzyw/WorkSpace/Projects/compilers/llvm-opt-benchmark/bench/sundials/sundials/src/arkode/arkode_arkstep.c\00", align 1
@__func__.arkStep_PrintMem = private unnamed_addr constant [17 x i8] c"arkStep_PrintMem\00", align 1
@.str.14 = private unnamed_addr constant [17 x i8] c"ARKStep: q = %i\0A\00", align 1
@.str.15 = private unnamed_addr constant [17 x i8] c"ARKStep: p = %i\0A\00", align 1
@.str.16 = private unnamed_addr constant [22 x i8] c"ARKStep: istage = %i\0A\00", align 1
@.str.17 = private unnamed_addr constant [22 x i8] c"ARKStep: stages = %i\0A\00", align 1
@.str.18 = private unnamed_addr constant [22 x i8] c"ARKStep: maxcor = %i\0A\00", align 1
@.str.19 = private unnamed_addr constant [20 x i8] c"ARKStep: msbp = %i\0A\00", align 1
@.str.20 = private unnamed_addr constant [25 x i8] c"ARKStep: predictor = %i\0A\00", align 1
@.str.21 = private unnamed_addr constant [27 x i8] c"ARKStep: lsolve_type = %i\0A\00", align 1
@.str.22 = private unnamed_addr constant [27 x i8] c"ARKStep: msolve_type = %i\0A\00", align 1
@.str.23 = private unnamed_addr constant [24 x i8] c"ARKStep: convfail = %i\0A\00", align 1
@.str.24 = private unnamed_addr constant [20 x i8] c"ARKStep: nfe = %li\0A\00", align 1
@.str.25 = private unnamed_addr constant [20 x i8] c"ARKStep: nfi = %li\0A\00", align 1
@.str.26 = private unnamed_addr constant [24 x i8] c"ARKStep: nsetups = %li\0A\00", align 1
@.str.27 = private unnamed_addr constant [22 x i8] c"ARKStep: nstlp = %li\0A\00", align 1
@.str.28 = private unnamed_addr constant [27 x i8] c"ARKStep: user_linear = %i\0A\00", align 1
@.str.29 = private unnamed_addr constant [35 x i8] c"ARKStep: user_linear_timedep = %i\0A\00", align 1
@.str.30 = private unnamed_addr constant [29 x i8] c"ARKStep: user_explicit = %i\0A\00", align 1
@.str.31 = private unnamed_addr constant [29 x i8] c"ARKStep: user_implicit = %i\0A\00", align 1
@.str.32 = private unnamed_addr constant [20 x i8] c"ARKStep: jcur = %i\0A\00", align 1
@.str.33 = private unnamed_addr constant [34 x i8] c"ARKStep: explicit Butcher table:\0A\00", align 1
@.str.34 = private unnamed_addr constant [34 x i8] c"ARKStep: implicit Butcher table:\0A\00", align 1
@.str.35 = private unnamed_addr constant [24 x i8] c"ARKStep: gamma = %.16g\0A\00", align 1
@.str.36 = private unnamed_addr constant [25 x i8] c"ARKStep: gammap = %.16g\0A\00", align 1
@.str.37 = private unnamed_addr constant [25 x i8] c"ARKStep: gamrat = %.16g\0A\00", align 1
@.str.38 = private unnamed_addr constant [24 x i8] c"ARKStep: crate = %.16g\0A\00", align 1
@.str.39 = private unnamed_addr constant [24 x i8] c"ARKStep: eRNrm = %.16g\0A\00", align 1
@.str.40 = private unnamed_addr constant [26 x i8] c"ARKStep: nlscoef = %.16g\0A\00", align 1
@.str.41 = private unnamed_addr constant [25 x i8] c"ARKStep: crdown = %.16g\0A\00", align 1
@.str.42 = private unnamed_addr constant [23 x i8] c"ARKStep: rdiv = %.16g\0A\00", align 1
@.str.43 = private unnamed_addr constant [24 x i8] c"ARKStep: dgmax = %.16g\0A\00", align 1
@.str.57 = private unnamed_addr constant [33 x i8] c"Time step module memory is NULL.\00", align 1

; Function Attrs: nounwind uwtable
define i32 @arkStep_AccessStepMem(ptr noundef %0, ptr noundef %1, ptr noundef %2) #0 {
  %4 = alloca i32, align 4
  %5 = alloca ptr, align 8
  %6 = alloca ptr, align 8
  %7 = alloca ptr, align 8
  store ptr %0, ptr %5, align 8, !tbaa !15
  store ptr %1, ptr %6, align 8, !tbaa !217
  store ptr %2, ptr %7, align 8, !tbaa !221
  %8 = load ptr, ptr %5, align 8, !tbaa !15
  %9 = getelementptr inbounds nuw %struct.ARKodeMemRec, ptr %8, i32 0, i32 19
  %10 = load ptr, ptr %9, align 8, !tbaa !74
  %11 = icmp eq ptr %10, null
  br i1 %11, label %12, label %15

12:                                               ; preds = %3
  %13 = load ptr, ptr %5, align 8, !tbaa !15
  %14 = load ptr, ptr %6, align 8, !tbaa !217
  call void (ptr, i32, i32, ptr, ptr, ptr, ...) @arkProcessError(ptr noundef %13, i32 noundef -21, i32 noundef 2165, ptr noundef %14, ptr noundef @.str, ptr noundef @.str.57)
  store i32 -21, ptr %4, align 4
  br label %20

15:                                               ; preds = %3
  %16 = load ptr, ptr %5, align 8, !tbaa !15
  %17 = getelementptr inbounds nuw %struct.ARKodeMemRec, ptr %16, i32 0, i32 19
  %18 = load ptr, ptr %17, align 8, !tbaa !74
  %19 = load ptr, ptr %7, align 8, !tbaa !221
  store ptr %18, ptr %19, align 8, !tbaa !17
  store i32 0, ptr %4, align 4
  br label %20

20:                                               ; preds = %15, %12
  %21 = load i32, ptr %4, align 4
  ret i32 %21
}

; Function Attrs: nounwind uwtable
define void @arkStep_PrintMem(ptr noundef %0, ptr noundef %1) #0 {
  %3 = alloca ptr, align 8
  %4 = alloca ptr, align 8
  %5 = alloca ptr, align 8
  %6 = alloca i32, align 4
  %7 = alloca i32, align 4
  store ptr %0, ptr %3, align 8, !tbaa !15
  store ptr %1, ptr %4, align 8, !tbaa !202
  call void @llvm.lifetime.start.p0(i64 8, ptr %5) #8
  call void @llvm.lifetime.start.p0(i64 4, ptr %6) #8
  %8 = load ptr, ptr %3, align 8, !tbaa !15
  %9 = call i32 @arkStep_AccessStepMem(ptr noundef %8, ptr noundef @__func__.arkStep_PrintMem, ptr noundef %5)
  store i32 %9, ptr %6, align 4, !tbaa !13
  %10 = load i32, ptr %6, align 4, !tbaa !13
  %11 = icmp ne i32 %10, 0
  br i1 %11, label %12, label %13

12:                                               ; preds = %2
  store i32 1, ptr %7, align 4
  br label %178

13:                                               ; preds = %2
  %14 = load ptr, ptr %4, align 8, !tbaa !202
  %15 = load ptr, ptr %5, align 8, !tbaa !17
  %16 = getelementptr inbounds nuw %struct.ARKodeARKStepMemRec, ptr %15, i32 0, i32 14
  %17 = load i32, ptr %16, align 8, !tbaa !150
  %18 = call i32 (ptr, ptr, ...) @fprintf(ptr noundef %14, ptr noundef @.str.14, i32 noundef %17) #8
  %19 = load ptr, ptr %4, align 8, !tbaa !202
  %20 = load ptr, ptr %5, align 8, !tbaa !17
  %21 = getelementptr inbounds nuw %struct.ARKodeARKStepMemRec, ptr %20, i32 0, i32 15
  %22 = load i32, ptr %21, align 4, !tbaa !153
  %23 = call i32 (ptr, ptr, ...) @fprintf(ptr noundef %19, ptr noundef @.str.15, i32 noundef %22) #8
  %24 = load ptr, ptr %4, align 8, !tbaa !202
  %25 = load ptr, ptr %5, align 8, !tbaa !17
  %26 = getelementptr inbounds nuw %struct.ARKodeARKStepMemRec, ptr %25, i32 0, i32 16
  %27 = load i32, ptr %26, align 8, !tbaa !191
  %28 = call i32 (ptr, ptr, ...) @fprintf(ptr noundef %24, ptr noundef @.str.16, i32 noundef %27) #8
  %29 = load ptr, ptr %4, align 8, !tbaa !202
  %30 = load ptr, ptr %5, align 8, !tbaa !17
  %31 = getelementptr inbounds nuw %struct.ARKodeARKStepMemRec, ptr %30, i32 0, i32 17
  %32 = load i32, ptr %31, align 4, !tbaa !158
  %33 = call i32 (ptr, ptr, ...) @fprintf(ptr noundef %29, ptr noundef @.str.17, i32 noundef %32) #8
  %34 = load ptr, ptr %4, align 8, !tbaa !202
  %35 = load ptr, ptr %5, align 8, !tbaa !17
  %36 = getelementptr inbounds nuw %struct.ARKodeARKStepMemRec, ptr %35, i32 0, i32 37
  %37 = load i32, ptr %36, align 8, !tbaa !204
  %38 = call i32 (ptr, ptr, ...) @fprintf(ptr noundef %34, ptr noundef @.str.18, i32 noundef %37) #8
  %39 = load ptr, ptr %4, align 8, !tbaa !202
  %40 = load ptr, ptr %5, align 8, !tbaa !17
  %41 = getelementptr inbounds nuw %struct.ARKodeARKStepMemRec, ptr %40, i32 0, i32 35
  %42 = load i32, ptr %41, align 8, !tbaa !205
  %43 = call i32 (ptr, ptr, ...) @fprintf(ptr noundef %39, ptr noundef @.str.19, i32 noundef %42) #8
  %44 = load ptr, ptr %4, align 8, !tbaa !202
  %45 = load ptr, ptr %5, align 8, !tbaa !17
  %46 = getelementptr inbounds nuw %struct.ARKodeARKStepMemRec, ptr %45, i32 0, i32 28
  %47 = load i32, ptr %46, align 8, !tbaa !166
  %48 = call i32 (ptr, ptr, ...) @fprintf(ptr noundef %44, ptr noundef @.str.20, i32 noundef %47) #8
  %49 = load ptr, ptr %4, align 8, !tbaa !202
  %50 = load ptr, ptr %5, align 8, !tbaa !17
  %51 = getelementptr inbounds nuw %struct.ARKodeARKStepMemRec, ptr %50, i32 0, i32 46
  %52 = load i32, ptr %51, align 8, !tbaa !94
  %53 = call i32 (ptr, ptr, ...) @fprintf(ptr noundef %49, ptr noundef @.str.21, i32 noundef %52) #8
  %54 = load ptr, ptr %4, align 8, !tbaa !202
  %55 = load ptr, ptr %5, align 8, !tbaa !17
  %56 = getelementptr inbounds nuw %struct.ARKodeARKStepMemRec, ptr %55, i32 0, i32 54
  %57 = load i32, ptr %56, align 4, !tbaa !102
  %58 = call i32 (ptr, ptr, ...) @fprintf(ptr noundef %54, ptr noundef @.str.22, i32 noundef %57) #8
  %59 = load ptr, ptr %4, align 8, !tbaa !202
  %60 = load ptr, ptr %5, align 8, !tbaa !17
  %61 = getelementptr inbounds nuw %struct.ARKodeARKStepMemRec, ptr %60, i32 0, i32 38
  %62 = load i32, ptr %61, align 4, !tbaa !206
  %63 = call i32 (ptr, ptr, ...) @fprintf(ptr noundef %59, ptr noundef @.str.23, i32 noundef %62) #8
  %64 = load ptr, ptr %4, align 8, !tbaa !202
  %65 = load ptr, ptr %5, align 8, !tbaa !17
  %66 = getelementptr inbounds nuw %struct.ARKodeARKStepMemRec, ptr %65, i32 0, i32 55
  %67 = load i64, ptr %66, align 8, !tbaa !104
  %68 = call i32 (ptr, ptr, ...) @fprintf(ptr noundef %64, ptr noundef @.str.24, i64 noundef %67) #8
  %69 = load ptr, ptr %4, align 8, !tbaa !202
  %70 = load ptr, ptr %5, align 8, !tbaa !17
  %71 = getelementptr inbounds nuw %struct.ARKodeARKStepMemRec, ptr %70, i32 0, i32 56
  %72 = load i64, ptr %71, align 8, !tbaa !105
  %73 = call i32 (ptr, ptr, ...) @fprintf(ptr noundef %69, ptr noundef @.str.25, i64 noundef %72) #8
  %74 = load ptr, ptr %4, align 8, !tbaa !202
  %75 = load ptr, ptr %5, align 8, !tbaa !17
  %76 = getelementptr inbounds nuw %struct.ARKodeARKStepMemRec, ptr %75, i32 0, i32 57
  %77 = load i64, ptr %76, align 8, !tbaa !106
  %78 = call i32 (ptr, ptr, ...) @fprintf(ptr noundef %74, ptr noundef @.str.26, i64 noundef %77) #8
  %79 = load ptr, ptr %4, align 8, !tbaa !202
  %80 = load ptr, ptr %5, align 8, !tbaa !17
  %81 = getelementptr inbounds nuw %struct.ARKodeARKStepMemRec, ptr %80, i32 0, i32 36
  %82 = load i64, ptr %81, align 8, !tbaa !107
  %83 = call i32 (ptr, ptr, ...) @fprintf(ptr noundef %79, ptr noundef @.str.27, i64 noundef %82) #8
  %84 = load ptr, ptr %4, align 8, !tbaa !202
  %85 = load ptr, ptr %5, align 8, !tbaa !17
  %86 = getelementptr inbounds nuw %struct.ARKodeARKStepMemRec, ptr %85, i32 0, i32 3
  %87 = load i32, ptr %86, align 4, !tbaa !207
  %88 = call i32 (ptr, ptr, ...) @fprintf(ptr noundef %84, ptr noundef @.str.28, i32 noundef %87) #8
  %89 = load ptr, ptr %4, align 8, !tbaa !202
  %90 = load ptr, ptr %5, align 8, !tbaa !17
  %91 = getelementptr inbounds nuw %struct.ARKodeARKStepMemRec, ptr %90, i32 0, i32 4
  %92 = load i32, ptr %91, align 8, !tbaa !208
  %93 = call i32 (ptr, ptr, ...) @fprintf(ptr noundef %89, ptr noundef @.str.29, i32 noundef %92) #8
  %94 = load ptr, ptr %4, align 8, !tbaa !202
  %95 = load ptr, ptr %5, align 8, !tbaa !17
  %96 = getelementptr inbounds nuw %struct.ARKodeARKStepMemRec, ptr %95, i32 0, i32 5
  %97 = load i32, ptr %96, align 4, !tbaa !75
  %98 = call i32 (ptr, ptr, ...) @fprintf(ptr noundef %94, ptr noundef @.str.30, i32 noundef %97) #8
  %99 = load ptr, ptr %4, align 8, !tbaa !202
  %100 = load ptr, ptr %5, align 8, !tbaa !17
  %101 = getelementptr inbounds nuw %struct.ARKodeARKStepMemRec, ptr %100, i32 0, i32 6
  %102 = load i32, ptr %101, align 8, !tbaa !81
  %103 = call i32 (ptr, ptr, ...) @fprintf(ptr noundef %99, ptr noundef @.str.31, i32 noundef %102) #8
  %104 = load ptr, ptr %4, align 8, !tbaa !202
  %105 = load ptr, ptr %5, align 8, !tbaa !17
  %106 = getelementptr inbounds nuw %struct.ARKodeARKStepMemRec, ptr %105, i32 0, i32 39
  %107 = load i32, ptr %106, align 8, !tbaa !209
  %108 = call i32 (ptr, ptr, ...) @fprintf(ptr noundef %104, ptr noundef @.str.32, i32 noundef %107) #8
  %109 = load ptr, ptr %5, align 8, !tbaa !17
  %110 = getelementptr inbounds nuw %struct.ARKodeARKStepMemRec, ptr %109, i32 0, i32 18
  %111 = load ptr, ptr %110, align 8, !tbaa !154
  %112 = icmp ne ptr %111, null
  br i1 %112, label %113, label %120

113:                                              ; preds = %13
  %114 = load ptr, ptr %4, align 8, !tbaa !202
  %115 = call i32 (ptr, ptr, ...) @fprintf(ptr noundef %114, ptr noundef @.str.33) #8
  %116 = load ptr, ptr %5, align 8, !tbaa !17
  %117 = getelementptr inbounds nuw %struct.ARKodeARKStepMemRec, ptr %116, i32 0, i32 18
  %118 = load ptr, ptr %117, align 8, !tbaa !154
  %119 = load ptr, ptr %4, align 8, !tbaa !202
  call void @ARKodeButcherTable_Write(ptr noundef %118, ptr noundef %119)
  br label %120

120:                                              ; preds = %113, %13
  %121 = load ptr, ptr %5, align 8, !tbaa !17
  %122 = getelementptr inbounds nuw %struct.ARKodeARKStepMemRec, ptr %121, i32 0, i32 19
  %123 = load ptr, ptr %122, align 8, !tbaa !142
  %124 = icmp ne ptr %123, null
  br i1 %124, label %125, label %132

125:                                              ; preds = %120
  %126 = load ptr, ptr %4, align 8, !tbaa !202
  %127 = call i32 (ptr, ptr, ...) @fprintf(ptr noundef %126, ptr noundef @.str.34) #8
  %128 = load ptr, ptr %5, align 8, !tbaa !17
  %129 = getelementptr inbounds nuw %struct.ARKodeARKStepMemRec, ptr %128, i32 0, i32 19
  %130 = load ptr, ptr %129, align 8, !tbaa !142
  %131 = load ptr, ptr %4, align 8, !tbaa !202
  call void @ARKodeButcherTable_Write(ptr noundef %130, ptr noundef %131)
  br label %132

132:                                              ; preds = %125, %120
  %133 = load ptr, ptr %4, align 8, !tbaa !202
  %134 = load ptr, ptr %5, align 8, !tbaa !17
  %135 = getelementptr inbounds nuw %struct.ARKodeARKStepMemRec, ptr %134, i32 0, i32 24
  %136 = load double, ptr %135, align 8, !tbaa !133
  %137 = call i32 (ptr, ptr, ...) @fprintf(ptr noundef %133, ptr noundef @.str.35, double noundef %136) #8
  %138 = load ptr, ptr %4, align 8, !tbaa !202
  %139 = load ptr, ptr %5, align 8, !tbaa !17
  %140 = getelementptr inbounds nuw %struct.ARKodeARKStepMemRec, ptr %139, i32 0, i32 25
  %141 = load double, ptr %140, align 8, !tbaa !210
  %142 = call i32 (ptr, ptr, ...) @fprintf(ptr noundef %138, ptr noundef @.str.36, double noundef %141) #8
  %143 = load ptr, ptr %4, align 8, !tbaa !202
  %144 = load ptr, ptr %5, align 8, !tbaa !17
  %145 = getelementptr inbounds nuw %struct.ARKodeARKStepMemRec, ptr %144, i32 0, i32 26
  %146 = load double, ptr %145, align 8, !tbaa !134
  %147 = call i32 (ptr, ptr, ...) @fprintf(ptr noundef %143, ptr noundef @.str.37, double noundef %146) #8
  %148 = load ptr, ptr %4, align 8, !tbaa !202
  %149 = load ptr, ptr %5, align 8, !tbaa !17
  %150 = getelementptr inbounds nuw %struct.ARKodeARKStepMemRec, ptr %149, i32 0, i32 31
  %151 = load double, ptr %150, align 8, !tbaa !211
  %152 = call i32 (ptr, ptr, ...) @fprintf(ptr noundef %148, ptr noundef @.str.38, double noundef %151) #8
  %153 = load ptr, ptr %4, align 8, !tbaa !202
  %154 = load ptr, ptr %5, align 8, !tbaa !17
  %155 = getelementptr inbounds nuw %struct.ARKodeARKStepMemRec, ptr %154, i32 0, i32 33
  %156 = load double, ptr %155, align 8, !tbaa !103
  %157 = call i32 (ptr, ptr, ...) @fprintf(ptr noundef %153, ptr noundef @.str.39, double noundef %156) #8
  %158 = load ptr, ptr %4, align 8, !tbaa !202
  %159 = load ptr, ptr %5, align 8, !tbaa !17
  %160 = getelementptr inbounds nuw %struct.ARKodeARKStepMemRec, ptr %159, i32 0, i32 34
  %161 = load double, ptr %160, align 8, !tbaa !176
  %162 = call i32 (ptr, ptr, ...) @fprintf(ptr noundef %158, ptr noundef @.str.40, double noundef %161) #8
  %163 = load ptr, ptr %4, align 8, !tbaa !202
  %164 = load ptr, ptr %5, align 8, !tbaa !17
  %165 = getelementptr inbounds nuw %struct.ARKodeARKStepMemRec, ptr %164, i32 0, i32 29
  %166 = load double, ptr %165, align 8, !tbaa !212
  %167 = call i32 (ptr, ptr, ...) @fprintf(ptr noundef %163, ptr noundef @.str.41, double noundef %166) #8
  %168 = load ptr, ptr %4, align 8, !tbaa !202
  %169 = load ptr, ptr %5, align 8, !tbaa !17
  %170 = getelementptr inbounds nuw %struct.ARKodeARKStepMemRec, ptr %169, i32 0, i32 30
  %171 = load double, ptr %170, align 8, !tbaa !213
  %172 = call i32 (ptr, ptr, ...) @fprintf(ptr noundef %168, ptr noundef @.str.42, double noundef %171) #8
  %173 = load ptr, ptr %4, align 8, !tbaa !202
  %174 = load ptr, ptr %5, align 8, !tbaa !17
  %175 = getelementptr inbounds nuw %struct.ARKodeARKStepMemRec, ptr %174, i32 0, i32 27
  %176 = load double, ptr %175, align 8, !tbaa !135
  %177 = call i32 (ptr, ptr, ...) @fprintf(ptr noundef %173, ptr noundef @.str.43, double noundef %176) #8
  store i32 0, ptr %7, align 4
  br label %178

178:                                              ; preds = %132, %12
  call void @llvm.lifetime.end.p0(i64 4, ptr %6) #8
  call void @llvm.lifetime.end.p0(i64 8, ptr %5) #8
  %179 = load i32, ptr %7, align 4
  switch i32 %179, label %181 [
    i32 0, label %180
    i32 1, label %180
  ]

180:                                              ; preds = %178, %178
  ret void

181:                                              ; preds = %178
  unreachable
}