; Function Attrs: nounwind uwtable
define void @arkStep_PrintMem(ptr noundef %0, ptr noundef %1) #0 {
  %3 = getelementptr inbounds nuw i8, ptr %0, i64 136
  %4 = load ptr, ptr %3, align 8, !tbaa !77
  %5 = icmp eq ptr %4, null
  br i1 %5, label %arkStep_AccessStepMem.exit, label %6

arkStep_AccessStepMem.exit:                       ; preds = %2
  tail call void (ptr, i32, i32, ptr, ptr, ptr, ...) @arkProcessError(ptr noundef nonnull %0, i32 noundef -21, i32 noundef 2165, ptr noundef nonnull @__func__.arkStep_PrintMem, ptr noundef nonnull @.str, ptr noundef nonnull @.str.57) #13
  br label %103

6:                                                ; preds = %2
  %7 = getelementptr inbounds nuw i8, ptr %4, i64 88
  %8 = load i32, ptr %7, align 8, !tbaa !135
  %9 = tail call i32 (ptr, ptr, ...) @fprintf(ptr noundef %1, ptr noundef nonnull @.str.14, i32 noundef %8) #13
  %10 = getelementptr inbounds nuw i8, ptr %4, i64 92
  %11 = load i32, ptr %10, align 4, !tbaa !136
  %12 = tail call i32 (ptr, ptr, ...) @fprintf(ptr noundef %1, ptr noundef nonnull @.str.15, i32 noundef %11) #13
  %13 = getelementptr inbounds nuw i8, ptr %4, i64 96
  %14 = load i32, ptr %13, align 8, !tbaa !183
  %15 = tail call i32 (ptr, ptr, ...) @fprintf(ptr noundef %1, ptr noundef nonnull @.str.16, i32 noundef %14) #13
  %16 = getelementptr inbounds nuw i8, ptr %4, i64 100
  %17 = load i32, ptr %16, align 4, !tbaa !140
  %18 = tail call i32 (ptr, ptr, ...) @fprintf(ptr noundef %1, ptr noundef nonnull @.str.17, i32 noundef %17) #13
  %19 = getelementptr inbounds nuw i8, ptr %4, i64 256
  %20 = load i32, ptr %19, align 8, !tbaa !194
  %21 = tail call i32 (ptr, ptr, ...) @fprintf(ptr noundef %1, ptr noundef nonnull @.str.18, i32 noundef %20) #13
  %22 = getelementptr inbounds nuw i8, ptr %4, i64 240
  %23 = load i32, ptr %22, align 8, !tbaa !195
  %24 = tail call i32 (ptr, ptr, ...) @fprintf(ptr noundef %1, ptr noundef nonnull @.str.19, i32 noundef %23) #13
  %25 = getelementptr inbounds nuw i8, ptr %4, i64 184
  %26 = load i32, ptr %25, align 8, !tbaa !153
  %27 = tail call i32 (ptr, ptr, ...) @fprintf(ptr noundef %1, ptr noundef nonnull @.str.20, i32 noundef %26) #13
  %28 = getelementptr inbounds nuw i8, ptr %4, i64 320
  %29 = load i32, ptr %28, align 8, !tbaa !91
  %30 = tail call i32 (ptr, ptr, ...) @fprintf(ptr noundef %1, ptr noundef nonnull @.str.21, i32 noundef %29) #13
  %31 = getelementptr inbounds nuw i8, ptr %4, i64 380
  %32 = load i32, ptr %31, align 4, !tbaa !92
  %33 = tail call i32 (ptr, ptr, ...) @fprintf(ptr noundef %1, ptr noundef nonnull @.str.22, i32 noundef %32) #13
  %34 = getelementptr inbounds nuw i8, ptr %4, i64 260
  %35 = load i32, ptr %34, align 4, !tbaa !196
  %36 = tail call i32 (ptr, ptr, ...) @fprintf(ptr noundef %1, ptr noundef nonnull @.str.23, i32 noundef %35) #13
  %37 = getelementptr inbounds nuw i8, ptr %4, i64 384
  %38 = load i64, ptr %37, align 8, !tbaa !163
  %39 = tail call i32 (ptr, ptr, ...) @fprintf(ptr noundef %1, ptr noundef nonnull @.str.24, i64 noundef %38) #13
  %40 = getelementptr inbounds nuw i8, ptr %4, i64 392
  %41 = load i64, ptr %40, align 8, !tbaa !166
  %42 = tail call i32 (ptr, ptr, ...) @fprintf(ptr noundef %1, ptr noundef nonnull @.str.25, i64 noundef %41) #13
  %43 = getelementptr inbounds nuw i8, ptr %4, i64 400
  %44 = load i64, ptr %43, align 8, !tbaa !103
  %45 = tail call i32 (ptr, ptr, ...) @fprintf(ptr noundef %1, ptr noundef nonnull @.str.26, i64 noundef %44) #13
  %46 = getelementptr inbounds nuw i8, ptr %4, i64 248
  %47 = load i64, ptr %46, align 8, !tbaa !94
  %48 = tail call i32 (ptr, ptr, ...) @fprintf(ptr noundef %1, ptr noundef nonnull @.str.27, i64 noundef %47) #13
  %49 = getelementptr inbounds nuw i8, ptr %4, i64 20
  %50 = load i32, ptr %49, align 4, !tbaa !197
  %51 = tail call i32 (ptr, ptr, ...) @fprintf(ptr noundef %1, ptr noundef nonnull @.str.28, i32 noundef %50) #13
  %52 = getelementptr inbounds nuw i8, ptr %4, i64 24
  %53 = load i32, ptr %52, align 8, !tbaa !198
  %54 = tail call i32 (ptr, ptr, ...) @fprintf(ptr noundef %1, ptr noundef nonnull @.str.29, i32 noundef %53) #13
  %55 = getelementptr inbounds nuw i8, ptr %4, i64 28
  %56 = load i32, ptr %55, align 4, !tbaa !78
  %57 = tail call i32 (ptr, ptr, ...) @fprintf(ptr noundef %1, ptr noundef nonnull @.str.30, i32 noundef %56) #13
  %58 = getelementptr inbounds nuw i8, ptr %4, i64 32
  %59 = load i32, ptr %58, align 8, !tbaa !84
  %60 = tail call i32 (ptr, ptr, ...) @fprintf(ptr noundef %1, ptr noundef nonnull @.str.31, i32 noundef %59) #13
  %61 = getelementptr inbounds nuw i8, ptr %4, i64 264
  %62 = load i32, ptr %61, align 8, !tbaa !199
  %63 = tail call i32 (ptr, ptr, ...) @fprintf(ptr noundef %1, ptr noundef nonnull @.str.32, i32 noundef %62) #13
  %64 = getelementptr inbounds nuw i8, ptr %4, i64 104
  %65 = load ptr, ptr %64, align 8, !tbaa !125
  %.not33 = icmp eq ptr %65, null
  br i1 %.not33, label %69, label %66

66:                                               ; preds = %6
  %67 = tail call i64 @fwrite(ptr nonnull @.str.33, i64 33, i64 1, ptr %1)
  %68 = load ptr, ptr %64, align 8, !tbaa !125
  tail call void @ARKodeButcherTable_Write(ptr noundef %68, ptr noundef %1) #13
  br label %69

69:                                               ; preds = %66, %6
  %70 = getelementptr inbounds nuw i8, ptr %4, i64 112
  %71 = load ptr, ptr %70, align 8, !tbaa !124
  %.not34 = icmp eq ptr %71, null
  br i1 %.not34, label %75, label %72

72:                                               ; preds = %69
  %73 = tail call i64 @fwrite(ptr nonnull @.str.34, i64 33, i64 1, ptr %1)
  %74 = load ptr, ptr %70, align 8, !tbaa !124
  tail call void @ARKodeButcherTable_Write(ptr noundef %74, ptr noundef %1) #13
  br label %75

75:                                               ; preds = %72, %69
  %76 = getelementptr inbounds nuw i8, ptr %4, i64 152
  %77 = load double, ptr %76, align 8, !tbaa !111
  %78 = tail call i32 (ptr, ptr, ...) @fprintf(ptr noundef %1, ptr noundef nonnull @.str.35, double noundef %77) #13
  %79 = getelementptr inbounds nuw i8, ptr %4, i64 160
  %80 = load double, ptr %79, align 8, !tbaa !200
  %81 = tail call i32 (ptr, ptr, ...) @fprintf(ptr noundef %1, ptr noundef nonnull @.str.36, double noundef %80) #13
  %82 = getelementptr inbounds nuw i8, ptr %4, i64 168
  %83 = load double, ptr %82, align 8, !tbaa !113
  %84 = tail call i32 (ptr, ptr, ...) @fprintf(ptr noundef %1, ptr noundef nonnull @.str.37, double noundef %83) #13
  %85 = getelementptr inbounds nuw i8, ptr %4, i64 208
  %86 = load double, ptr %85, align 8, !tbaa !201
  %87 = tail call i32 (ptr, ptr, ...) @fprintf(ptr noundef %1, ptr noundef nonnull @.str.38, double noundef %86) #13
  %88 = getelementptr inbounds nuw i8, ptr %4, i64 224
  %89 = load double, ptr %88, align 8, !tbaa !93
  %90 = tail call i32 (ptr, ptr, ...) @fprintf(ptr noundef %1, ptr noundef nonnull @.str.39, double noundef %89) #13
  %91 = getelementptr inbounds nuw i8, ptr %4, i64 232
  %92 = load double, ptr %91, align 8, !tbaa !164
  %93 = tail call i32 (ptr, ptr, ...) @fprintf(ptr noundef %1, ptr noundef nonnull @.str.40, double noundef %92) #13
  %94 = getelementptr inbounds nuw i8, ptr %4, i64 192
  %95 = load double, ptr %94, align 8, !tbaa !202
  %96 = tail call i32 (ptr, ptr, ...) @fprintf(ptr noundef %1, ptr noundef nonnull @.str.41, double noundef %95) #13
  %97 = getelementptr inbounds nuw i8, ptr %4, i64 200
  %98 = load double, ptr %97, align 8, !tbaa !203
  %99 = tail call i32 (ptr, ptr, ...) @fprintf(ptr noundef %1, ptr noundef nonnull @.str.42, double noundef %98) #13
  %100 = getelementptr inbounds nuw i8, ptr %4, i64 176
  %101 = load double, ptr %100, align 8, !tbaa !116
  %102 = tail call i32 (ptr, ptr, ...) @fprintf(ptr noundef %1, ptr noundef nonnull @.str.43, double noundef %101) #13
  br label %103

103:                                              ; preds = %arkStep_AccessStepMem.exit, %75
  ret void
}